; Function Attrs: inlinehint mustprogress nounwind uwtable
define internal void @_ZN3ue212_GLOBAL__N_126raw_gough_report_info_implD0Ev(ptr noundef nonnull align 8 dereferenceable(32) initializes((0, 8)) %0) unnamed_addr #13 align 2 personality ptr @__gxx_personality_v0 {
  store ptr getelementptr inbounds nuw inrange(-16, 40) (i8, ptr @_ZTVN3ue212_GLOBAL__N_126raw_gough_report_info_implE, i64 16), ptr %0, align 8
  %2 = getelementptr inbounds nuw i8, ptr %0, i64 8
  %3 = load ptr, ptr %2, align 8
  %4 = getelementptr inbounds nuw i8, ptr %0, i64 16
  %5 = load ptr, ptr %4, align 8
  %.not4.i.i.i.i.i = icmp eq ptr %3, %5
  br i1 %.not4.i.i.i.i.i, label %_ZSt8_DestroyIPN3ue212_GLOBAL__N_121raw_gough_report_listES2_EvT_S4_RSaIT0_E.exit.i.i, label %.lr.ph.i.i.i.i.i

.lr.ph.i.i.i.i.i:                                 ; preds = %1, %_ZSt8_DestroyIN3ue212_GLOBAL__N_121raw_gough_report_listEEvPT_.exit.i.i.i.i.i
  %.05.i.i.i.i.i = phi ptr [ %11, %_ZSt8_DestroyIN3ue212_GLOBAL__N_121raw_gough_report_listEEvPT_.exit.i.i.i.i.i ], [ %3, %1 ]
  %6 = getelementptr inbounds nuw i8, ptr %.05.i.i.i.i.i, i64 16
  %7 = load ptr, ptr %6, align 8
  invoke void @_ZNSt8_Rb_treeIN3ue210som_reportES1_St9_IdentityIS1_ESt4lessIS1_ESaIS1_EE8_M_eraseEPSt13_Rb_tree_nodeIS1_E(ptr noundef nonnull align 8 dereferenceable(48) %.05.i.i.i.i.i, ptr noundef %7)
          to label %_ZSt8_DestroyIN3ue212_GLOBAL__N_121raw_gough_report_listEEvPT_.exit.i.i.i.i.i unwind label %8

8:                                                ; preds = %.lr.ph.i.i.i.i.i
  %9 = landingpad { ptr, i32 }
          catch ptr null
  %10 = extractvalue { ptr, i32 } %9, 0
  tail call void @__clang_call_terminate(ptr %10) #32
  unreachable

_ZSt8_DestroyIN3ue212_GLOBAL__N_121raw_gough_report_listEEvPT_.exit.i.i.i.i.i: ; preds = %.lr.ph.i.i.i.i.i
  %11 = getelementptr inbounds nuw i8, ptr %.05.i.i.i.i.i, i64 48
  %.not.i.i.i.i.i = icmp eq ptr %11, %5
  br i1 %.not.i.i.i.i.i, label %_ZSt8_DestroyIPN3ue212_GLOBAL__N_121raw_gough_report_listES2_EvT_S4_RSaIT0_E.exitthread-pre-split.i.i, label %.lr.ph.i.i.i.i.i, !llvm.loop !938

_ZSt8_DestroyIPN3ue212_GLOBAL__N_121raw_gough_report_listES2_EvT_S4_RSaIT0_E.exitthread-pre-split.i.i: ; preds = %_ZSt8_DestroyIN3ue212_GLOBAL__N_121raw_gough_report_listEEvPT_.exit.i.i.i.i.i
  %.val.pr.i.i = load ptr, ptr %2, align 8
  br label %_ZSt8_DestroyIPN3ue212_GLOBAL__N_121raw_gough_report_listES2_EvT_S4_RSaIT0_E.exit.i.i

_ZSt8_DestroyIPN3ue212_GLOBAL__N_121raw_gough_report_listES2_EvT_S4_RSaIT0_E.exit.i.i: ; preds = %_ZSt8_DestroyIPN3ue212_GLOBAL__N_121raw_gough_report_listES2_EvT_S4_RSaIT0_E.exitthread-pre-split.i.i, %1
  %.val.i.i = phi ptr [ %.val.pr.i.i, %_ZSt8_DestroyIPN3ue212_GLOBAL__N_121raw_gough_report_listES2_EvT_S4_RSaIT0_E.exitthread-pre-split.i.i ], [ %3, %1 ]
  %.not.i.i.i.i = icmp eq ptr %.val.i.i, null
  br i1 %.not.i.i.i.i, label %_ZN3ue212_GLOBAL__N_126raw_gough_report_info_implD2Ev.exit, label %12

12:                                               ; preds = %_ZSt8_DestroyIPN3ue212_GLOBAL__N_121raw_gough_report_listES2_EvT_S4_RSaIT0_E.exit.i.i
  tail call void @_ZdlPv(ptr noundef nonnull %.val.i.i) #35
  br label %_ZN3ue212_GLOBAL__N_126raw_gough_report_info_implD2Ev.exit

_ZN3ue212_GLOBAL__N_126raw_gough_report_info_implD2Ev.exit: ; preds = %_ZSt8_DestroyIPN3ue212_GLOBAL__N_121raw_gough_report_listES2_EvT_S4_RSaIT0_E.exit.i.i, %12
  tail call void @_ZN3ue215raw_report_infoD2Ev(ptr noundef nonnull align 8 dereferenceable(32) %0) #34
  tail call void @_ZdlPv(ptr noundef nonnull %0) #35
  ret void
}